; Function Attrs: nounwind uwtable
define range(i32 -2147483648, 2147483647) i32 @Gia_ManCountBdd(ptr noundef readonly captures(none) %0, i32 noundef %1, i32 %2) local_unnamed_addr #2 {
  %4 = icmp slt i32 %1, 7
  %5 = add nsw i32 %1, -6
  %6 = shl nuw i32 1, %5
  %7 = select i1 %4, i32 1, i32 %6
  %8 = getelementptr i8, ptr %0, i64 8
  %.val20 = load ptr, ptr %8, align 8
  %9 = sext i32 %7 to i64
  %10 = getelementptr inbounds i64, ptr %.val20, i64 %9
  %11 = icmp sgt i32 %7, 0
  br i1 %11, label %.lr.ph.preheader.i, label %Abc_TtNot.exit.thread

.lr.ph.preheader.i:                               ; preds = %3
  %wide.trip.count.i = zext nneg i32 %7 to i64
  br label %.lr.ph.i

.lr.ph.i:                                         ; preds = %.lr.ph.i, %.lr.ph.preheader.i
  %indvars.iv.i = phi i64 [ 0, %.lr.ph.preheader.i ], [ %indvars.iv.next.i, %.lr.ph.i ]
  %12 = getelementptr inbounds nuw i64, ptr %10, i64 %indvars.iv.i
  %13 = load i64, ptr %12, align 8
  %14 = getelementptr inbounds nuw i64, ptr %.val20, i64 %indvars.iv.i
  %15 = load i64, ptr %14, align 8
  %16 = or i64 %15, %13
  store i64 %16, ptr %12, align 8
  %indvars.iv.next.i = add nuw nsw i64 %indvars.iv.i, 1
  %exitcond.not.i = icmp eq i64 %indvars.iv.next.i, %wide.trip.count.i
  br i1 %exitcond.not.i, label %.lr.ph.i23, label %.lr.ph.i, !llvm.loop !16

.lr.ph.i23:                                       ; preds = %.lr.ph.i, %.lr.ph.i23
  %indvars.iv.i24 = phi i64 [ %indvars.iv.next.i25, %.lr.ph.i23 ], [ 0, %.lr.ph.i ]
  %17 = getelementptr inbounds nuw i64, ptr %.val20, i64 %indvars.iv.i24
  %18 = load i64, ptr %17, align 8
  %19 = xor i64 %18, -1
  store i64 %19, ptr %17, align 8
  %indvars.iv.next.i25 = add nuw nsw i64 %indvars.iv.i24, 1
  %exitcond.not.i26 = icmp eq i64 %indvars.iv.next.i25, %wide.trip.count.i
  br i1 %exitcond.not.i26, label %Abc_TtNot.exit, label %.lr.ph.i23, !llvm.loop !18

Abc_TtNot.exit.thread:                            ; preds = %3
  %20 = tail call ptr @Gia_TryPermOptNew(ptr noundef %.val20, i32 noundef %1, i32 noundef 1, i32 noundef %7, i32 noundef 50, i32 noundef 0) #14
  br label %Abc_TtSharp.exit

Abc_TtNot.exit:                                   ; preds = %.lr.ph.i23
  %21 = tail call ptr @Gia_TryPermOptNew(ptr noundef nonnull %.val20, i32 noundef %1, i32 noundef 1, i32 noundef %7, i32 noundef 50, i32 noundef 0) #14
  br label %.lr.ph.i29

.lr.ph.i29:                                       ; preds = %.lr.ph.i29, %Abc_TtNot.exit
  %indvars.iv.i30 = phi i64 [ 0, %Abc_TtNot.exit ], [ %indvars.iv.next.i31, %.lr.ph.i29 ]
  %22 = getelementptr inbounds nuw i64, ptr %.val20, i64 %indvars.iv.i30
  %23 = load i64, ptr %22, align 8
  %24 = xor i64 %23, -1
  store i64 %24, ptr %22, align 8
  %indvars.iv.next.i31 = add nuw nsw i64 %indvars.iv.i30, 1
  %exitcond.not.i32 = icmp eq i64 %indvars.iv.next.i31, %wide.trip.count.i
  br i1 %exitcond.not.i32, label %.lr.ph.i36, label %.lr.ph.i29, !llvm.loop !18

.lr.ph.i36:                                       ; preds = %.lr.ph.i29, %.lr.ph.i36
  %indvars.iv.i37 = phi i64 [ %indvars.iv.next.i38, %.lr.ph.i36 ], [ 0, %.lr.ph.i29 ]
  %25 = getelementptr inbounds nuw i64, ptr %10, i64 %indvars.iv.i37
  %26 = load i64, ptr %25, align 8
  %27 = getelementptr inbounds nuw i64, ptr %.val20, i64 %indvars.iv.i37
  %28 = load i64, ptr %27, align 8
  %29 = xor i64 %28, -1
  %30 = and i64 %26, %29
  store i64 %30, ptr %25, align 8
  %indvars.iv.next.i38 = add nuw nsw i64 %indvars.iv.i37, 1
  %exitcond.not.i39 = icmp eq i64 %indvars.iv.next.i38, %wide.trip.count.i
  br i1 %exitcond.not.i39, label %Abc_TtSharp.exit, label %.lr.ph.i36, !llvm.loop !17

Abc_TtSharp.exit:                                 ; preds = %.lr.ph.i36, %Abc_TtNot.exit.thread
  %31 = phi ptr [ %20, %Abc_TtNot.exit.thread ], [ %21, %.lr.ph.i36 ]
  %32 = getelementptr inbounds nuw i8, ptr %31, i64 24
  %33 = load i32, ptr %32, align 8
  %34 = getelementptr inbounds nuw i8, ptr %31, i64 64
  %35 = load ptr, ptr %34, align 8
  %36 = getelementptr i8, ptr %35, i64 4
  %.val3.i = load i32, ptr %36, align 4
  %37 = getelementptr inbounds nuw i8, ptr %31, i64 72
  %38 = load ptr, ptr %37, align 8
  %39 = getelementptr i8, ptr %38, i64 4
  %.val.i = load i32, ptr %39, align 4
  %40 = add i32 %.val.i, %.val3.i
  %41 = xor i32 %40, -1
  %42 = add i32 %33, %41
  tail call void @Gia_ManStop(ptr noundef %31) #14
  ret i32 %42
}